target datalayout = "e-m:e-p270:32:32-p271:32:32-p272:64:64-i64:64-i128:128-f80:128-n8:16:32:64-S128"
target triple = "x86_64-pc-linux-gnu"

%struct._zval_struct = type { %union._zend_value, %union.anon, %union.anon.2 }
%union._zend_value = type { i64 }
%union.anon = type { i32 }
%union.anon.2 = type { i32 }
%struct._zend_array = type { %struct._zend_refcounted_h, %union.anon.4, i32, %union.anon.6, i32, i32, i32, i32, i64, ptr }
%struct._zend_refcounted_h = type { i32, %union.anon.3 }
%union.anon.3 = type { i32 }
%union.anon.4 = type { i32 }
%union.anon.6 = type { ptr }
%struct._php_libxml_func_handler = type { ptr }
%struct._zend_class_entry = type { i8, ptr, %union.anon.7, i32, i32, i32, i32, ptr, ptr, ptr, %struct._zend_array, %struct._zend_array, %struct._zend_array, ptr, ptr, ptr, ptr, ptr, ptr, ptr, ptr, ptr, ptr, ptr, ptr, ptr, ptr, ptr, ptr, ptr, ptr, ptr, %union.anon.8, ptr, ptr, ptr, ptr, i32, i32, %union.anon.9, ptr, ptr, ptr, ptr, i32, ptr, ptr, %union.anon.10 }
%union.anon.7 = type { ptr }
%union.anon.8 = type { ptr }
%union.anon.9 = type { ptr }
%union.anon.10 = type { %struct.anon.11 }
%struct.anon.11 = type { ptr, i32, i32 }

@_php_libxml_initialized = internal global i32 0, align 4
@_php_libxml_default_entity_loader = internal global ptr null, align 8
@php_libxml_exports = internal global %struct._zend_array zeroinitializer, align 8

; Function Attrs: nounwind uwtable
define void @php_libxml_initialize() #0 {
  %1 = load i32, ptr @_php_libxml_initialized, align 4
  %2 = icmp ne i32 %1, 0
  br i1 %2, label %5, label %3

3:                                                ; preds = %0
  call void @xmlInitParser()
  %4 = call ptr @xmlGetExternalEntityLoader()
  store ptr %4, ptr @_php_libxml_default_entity_loader, align 8
  call void @xmlSetExternalEntityLoader(ptr noundef @_php_libxml_pre_ext_ent_loader)
  call void @_zend_hash_init(ptr noundef @php_libxml_exports, i32 noundef 0, ptr noundef @php_libxml_exports_dtor, i1 noundef zeroext true)
  store i32 1, ptr @_php_libxml_initialized, align 4
  br label %5

5:                                                ; preds = %3, %0
  ret void
}

; Function Attrs: nounwind uwtable
define ptr @php_libxml_register_export(ptr noundef %0, ptr noundef %1) #0 {
  %3 = alloca i32, align 4
  %4 = alloca ptr, align 8
  %5 = alloca ptr, align 8
  %6 = alloca ptr, align 8
  %7 = alloca ptr, align 8
  %8 = alloca i64, align 8
  %9 = alloca %struct._zval_struct, align 8
  %10 = alloca ptr, align 8
  %11 = alloca ptr, align 8
  %12 = alloca ptr, align 8
  %13 = alloca %struct._php_libxml_func_handler, align 8
  store ptr %0, ptr %11, align 8
  store ptr %1, ptr %12, align 8
  call void @php_libxml_initialize()
  %14 = load ptr, ptr %12, align 8
  %15 = getelementptr inbounds %struct._php_libxml_func_handler, ptr %13, i32 0, i32 0
  store ptr %14, ptr %15, align 8
  %16 = load ptr, ptr %11, align 8
  %17 = getelementptr inbounds %struct._zend_class_entry, ptr %16, i32 0, i32 1
  %18 = load ptr, ptr %17, align 8
  store ptr @php_libxml_exports, ptr %5, align 8
  store ptr %18, ptr %6, align 8
  store ptr %13, ptr %7, align 8
  store i64 8, ptr %8, align 8
  store ptr null, ptr %9, align 8
  %19 = getelementptr inbounds %struct._zval_struct, ptr %9, i32 0, i32 1
  store i32 13, ptr %19, align 8
  %20 = load ptr, ptr %5, align 8
  %21 = load ptr, ptr %6, align 8
  %22 = call ptr @zend_hash_add(ptr noundef %20, ptr noundef %21, ptr noundef %9) #11
  store ptr %22, ptr %10, align 8
  %23 = icmp ne ptr %22, null
  br i1 %23, label %24, label %273

24:                                               ; preds = %2
  %25 = load ptr, ptr %5, align 8
  %26 = getelementptr inbounds %struct._zend_refcounted_h, ptr %25, i32 0, i32 1
  %27 = load i32, ptr %26, align 4
  store i32 %27, ptr %3, align 4
  %28 = load i32, ptr %3, align 4
  %29 = and i32 %28, 1008
  %30 = and i32 %29, 128
  %31 = icmp ne i32 %30, 0
  br i1 %31, label %32, label %35

32:                                               ; preds = %24
  %33 = load i64, ptr %8, align 8
  %34 = call noalias ptr @__zend_malloc(i64 noundef %33) #12
  br label %264

35:                                               ; preds = %24
  %36 = load i64, ptr %8, align 8
  %37 = call i1 @llvm.is.constant.i64(i64 %36)
  br i1 %37, label %38, label %259

38:                                               ; preds = %35
  %39 = load i64, ptr %8, align 8
  %40 = icmp ule i64 %39, 8
  br i1 %40, label %41, label %43

41:                                               ; preds = %38
  %42 = call noalias ptr @_emalloc_8() #11
  br label %257

43:                                               ; preds = %38
  %44 = load i64, ptr %8, align 8
  %45 = icmp ule i64 %44, 16
  br i1 %45, label %46, label %48

46:                                               ; preds = %43
  %47 = call noalias ptr @_emalloc_16() #11
  br label %255

48:                                               ; preds = %43
  %49 = load i64, ptr %8, align 8
  %50 = icmp ule i64 %49, 24
  br i1 %50, label %51, label %53

51:                                               ; preds = %48
  %52 = call noalias ptr @_emalloc_24() #11
  br label %253

53:                                               ; preds = %48
  %54 = load i64, ptr %8, align 8
  %55 = icmp ule i64 %54, 32
  br i1 %55, label %56, label %58

56:                                               ; preds = %53
  %57 = call noalias ptr @_emalloc_32() #11
  br label %251

58:                                               ; preds = %53
  %59 = load i64, ptr %8, align 8
  %60 = icmp ule i64 %59, 40
  br i1 %60, label %61, label %63

61:                                               ; preds = %58
  %62 = call noalias ptr @_emalloc_40() #11
  br label %249

63:                                               ; preds = %58
  %64 = load i64, ptr %8, align 8
  %65 = icmp ule i64 %64, 48
  br i1 %65, label %66, label %68

66:                                               ; preds = %63
  %67 = call noalias ptr @_emalloc_48() #11
  br label %247

68:                                               ; preds = %63
  %69 = load i64, ptr %8, align 8
  %70 = icmp ule i64 %69, 56
  br i1 %70, label %71, label %73

71:                                               ; preds = %68
  %72 = call noalias ptr @_emalloc_56() #11
  br label %245

73:                                               ; preds = %68
  %74 = load i64, ptr %8, align 8
  %75 = icmp ule i64 %74, 64
  br i1 %75, label %76, label %78

76:                                               ; preds = %73
  %77 = call noalias ptr @_emalloc_64() #11
  br label %243

78:                                               ; preds = %73
  %79 = load i64, ptr %8, align 8
  %80 = icmp ule i64 %79, 80
  br i1 %80, label %81, label %83

81:                                               ; preds = %78
  %82 = call noalias ptr @_emalloc_80() #11
  br label %241

83:                                               ; preds = %78
  %84 = load i64, ptr %8, align 8
  %85 = icmp ule i64 %84, 96
  br i1 %85, label %86, label %88

86:                                               ; preds = %83
  %87 = call noalias ptr @_emalloc_96() #11
  br label %239

88:                                               ; preds = %83
  %89 = load i64, ptr %8, align 8
  %90 = icmp ule i64 %89, 112
  br i1 %90, label %91, label %93

91:                                               ; preds = %88
  %92 = call noalias ptr @_emalloc_112() #11
  br label %237

93:                                               ; preds = %88
  %94 = load i64, ptr %8, align 8
  %95 = icmp ule i64 %94, 128
  br i1 %95, label %96, label %98

96:                                               ; preds = %93
  %97 = call noalias ptr @_emalloc_128() #11
  br label %235

98:                                               ; preds = %93
  %99 = load i64, ptr %8, align 8
  %100 = icmp ule i64 %99, 160
  br i1 %100, label %101, label %103

101:                                              ; preds = %98
  %102 = call noalias ptr @_emalloc_160() #11
  br label %233

103:                                              ; preds = %98
  %104 = load i64, ptr %8, align 8
  %105 = icmp ule i64 %104, 192
  br i1 %105, label %106, label %108

106:                                              ; preds = %103
  %107 = call noalias ptr @_emalloc_192() #11
  br label %231

108:                                              ; preds = %103
  %109 = load i64, ptr %8, align 8
  %110 = icmp ule i64 %109, 224
  br i1 %110, label %111, label %113

111:                                              ; preds = %108
  %112 = call noalias ptr @_emalloc_224() #11
  br label %229

113:                                              ; preds = %108
  %114 = load i64, ptr %8, align 8
  %115 = icmp ule i64 %114, 256
  br i1 %115, label %116, label %118

116:                                              ; preds = %113
  %117 = call noalias ptr @_emalloc_256() #11
  br label %227

118:                                              ; preds = %113
  %119 = load i64, ptr %8, align 8
  %120 = icmp ule i64 %119, 320
  br i1 %120, label %121, label %123

121:                                              ; preds = %118
  %122 = call noalias ptr @_emalloc_320() #11
  br label %225

123:                                              ; preds = %118
  %124 = load i64, ptr %8, align 8
  %125 = icmp ule i64 %124, 384
  br i1 %125, label %126, label %128

126:                                              ; preds = %123
  %127 = call noalias ptr @_emalloc_384() #11
  br label %223

128:                                              ; preds = %123
  %129 = load i64, ptr %8, align 8
  %130 = icmp ule i64 %129, 448
  br i1 %130, label %131, label %133

131:                                              ; preds = %128
  %132 = call noalias ptr @_emalloc_448() #11
  br label %221

133:                                              ; preds = %128
  %134 = load i64, ptr %8, align 8
  %135 = icmp ule i64 %134, 512
  br i1 %135, label %136, label %138

136:                                              ; preds = %133
  %137 = call noalias ptr @_emalloc_512() #11
  br label %219

138:                                              ; preds = %133
  %139 = load i64, ptr %8, align 8
  %140 = icmp ule i64 %139, 640
  br i1 %140, label %141, label %143

141:                                              ; preds = %138
  %142 = call noalias ptr @_emalloc_640() #11
  br label %217

143:                                              ; preds = %138
  %144 = load i64, ptr %8, align 8
  %145 = icmp ule i64 %144, 768
  br i1 %145, label %146, label %148

146:                                              ; preds = %143
  %147 = call noalias ptr @_emalloc_768() #11
  br label %215

148:                                              ; preds = %143
  %149 = load i64, ptr %8, align 8
  %150 = icmp ule i64 %149, 896
  br i1 %150, label %151, label %153

151:                                              ; preds = %148
  %152 = call noalias ptr @_emalloc_896() #11
  br label %213

153:                                              ; preds = %148
  %154 = load i64, ptr %8, align 8
  %155 = icmp ule i64 %154, 1024
  br i1 %155, label %156, label %158

156:                                              ; preds = %153
  %157 = call noalias ptr @_emalloc_1024() #11
  br label %211

158:                                              ; preds = %153
  %159 = load i64, ptr %8, align 8
  %160 = icmp ule i64 %159, 1280
  br i1 %160, label %161, label %163

161:                                              ; preds = %158
  %162 = call noalias ptr @_emalloc_1280() #11
  br label %209

163:                                              ; preds = %158
  %164 = load i64, ptr %8, align 8
  %165 = icmp ule i64 %164, 1536
  br i1 %165, label %166, label %168

166:                                              ; preds = %163
  %167 = call noalias ptr @_emalloc_1536() #11
  br label %207

168:                                              ; preds = %163
  %169 = load i64, ptr %8, align 8
  %170 = icmp ule i64 %169, 1792
  br i1 %170, label %171, label %173

171:                                              ; preds = %168
  %172 = call noalias ptr @_emalloc_1792() #11
  br label %205

173:                                              ; preds = %168
  %174 = load i64, ptr %8, align 8
  %175 = icmp ule i64 %174, 2048
  br i1 %175, label %176, label %178

176:                                              ; preds = %173
  %177 = call noalias ptr @_emalloc_2048() #11
  br label %203

178:                                              ; preds = %173
  %179 = load i64, ptr %8, align 8
  %180 = icmp ule i64 %179, 2560
  br i1 %180, label %181, label %183

181:                                              ; preds = %178
  %182 = call noalias ptr @_emalloc_2560() #11
  br label %201

183:                                              ; preds = %178
  %184 = load i64, ptr %8, align 8
  %185 = icmp ule i64 %184, 3072
  br i1 %185, label %186, label %188

186:                                              ; preds = %183
  %187 = call noalias ptr @_emalloc_3072() #11
  br label %199

188:                                              ; preds = %183
  %189 = load i64, ptr %8, align 8
  %190 = icmp ule i64 %189, 2093056
  br i1 %190, label %191, label %194

191:                                              ; preds = %188
  %192 = load i64, ptr %8, align 8
  %193 = call noalias ptr @_emalloc_large(i64 noundef %192) #12
  br label %197

194:                                              ; preds = %188
  %195 = load i64, ptr %8, align 8
  %196 = call noalias ptr @_emalloc_huge(i64 noundef %195) #12
  br label %197

197:                                              ; preds = %194, %191
  %198 = phi ptr [ %193, %191 ], [ %196, %194 ]
  br label %199

199:                                              ; preds = %197, %186
  %200 = phi ptr [ %187, %186 ], [ %198, %197 ]
  br label %201

201:                                              ; preds = %199, %181
  %202 = phi ptr [ %182, %181 ], [ %200, %199 ]
  br label %203

203:                                              ; preds = %201, %176
  %204 = phi ptr [ %177, %176 ], [ %202, %201 ]
  br label %205

205:                                              ; preds = %203, %171
  %206 = phi ptr [ %172, %171 ], [ %204, %203 ]
  br label %207

207:                                              ; preds = %205, %166
  %208 = phi ptr [ %167, %166 ], [ %206, %205 ]
  br label %209

209:                                              ; preds = %207, %161
  %210 = phi ptr [ %162, %161 ], [ %208, %207 ]
  br label %211

211:                                              ; preds = %209, %156
  %212 = phi ptr [ %157, %156 ], [ %210, %209 ]
  br label %213

213:                                              ; preds = %211, %151
  %214 = phi ptr [ %152, %151 ], [ %212, %211 ]
  br label %215

215:                                              ; preds = %213, %146
  %216 = phi ptr [ %147, %146 ], [ %214, %213 ]
  br label %217

217:                                              ; preds = %215, %141
  %218 = phi ptr [ %142, %141 ], [ %216, %215 ]
  br label %219

219:                                              ; preds = %217, %136
  %220 = phi ptr [ %137, %136 ], [ %218, %217 ]
  br label %221

221:                                              ; preds = %219, %131
  %222 = phi ptr [ %132, %131 ], [ %220, %219 ]
  br label %223

223:                                              ; preds = %221, %126
  %224 = phi ptr [ %127, %126 ], [ %222, %221 ]
  br label %225

225:                                              ; preds = %223, %121
  %226 = phi ptr [ %122, %121 ], [ %224, %223 ]
  br label %227

227:                                              ; preds = %225, %116
  %228 = phi ptr [ %117, %116 ], [ %226, %225 ]
  br label %229

229:                                              ; preds = %227, %111
  %230 = phi ptr [ %112, %111 ], [ %228, %227 ]
  br label %231

231:                                              ; preds = %229, %106
  %232 = phi ptr [ %107, %106 ], [ %230, %229 ]
  br label %233

233:                                              ; preds = %231, %101
  %234 = phi ptr [ %102, %101 ], [ %232, %231 ]
  br label %235

235:                                              ; preds = %233, %96
  %236 = phi ptr [ %97, %96 ], [ %234, %233 ]
  br label %237

237:                                              ; preds = %235, %91
  %238 = phi ptr [ %92, %91 ], [ %236, %235 ]
  br label %239

239:                                              ; preds = %237, %86
  %240 = phi ptr [ %87, %86 ], [ %238, %237 ]
  br label %241

241:                                              ; preds = %239, %81
  %242 = phi ptr [ %82, %81 ], [ %240, %239 ]
  br label %243

243:                                              ; preds = %241, %76
  %244 = phi ptr [ %77, %76 ], [ %242, %241 ]
  br label %245

245:                                              ; preds = %243, %71
  %246 = phi ptr [ %72, %71 ], [ %244, %243 ]
  br label %247

247:                                              ; preds = %245, %66
  %248 = phi ptr [ %67, %66 ], [ %246, %245 ]
  br label %249

249:                                              ; preds = %247, %61
  %250 = phi ptr [ %62, %61 ], [ %248, %247 ]
  br label %251

251:                                              ; preds = %249, %56
  %252 = phi ptr [ %57, %56 ], [ %250, %249 ]
  br label %253

253:                                              ; preds = %251, %51
  %254 = phi ptr [ %52, %51 ], [ %252, %251 ]
  br label %255

255:                                              ; preds = %253, %46
  %256 = phi ptr [ %47, %46 ], [ %254, %253 ]
  br label %257

257:                                              ; preds = %255, %41
  %258 = phi ptr [ %42, %41 ], [ %256, %255 ]
  br label %262

259:                                              ; preds = %35
  %260 = load i64, ptr %8, align 8
  %261 = call noalias ptr @_emalloc(i64 noundef %260) #12
  br label %262

262:                                              ; preds = %259, %257
  %263 = phi ptr [ %258, %257 ], [ %261, %259 ]
  br label %264

264:                                              ; preds = %262, %32
  %265 = phi ptr [ %34, %32 ], [ %263, %262 ]
  %266 = load ptr, ptr %10, align 8
  store ptr %265, ptr %266, align 8
  %267 = load ptr, ptr %10, align 8
  %268 = load ptr, ptr %267, align 8
  %269 = load ptr, ptr %7, align 8
  %270 = load i64, ptr %8, align 8
  call void @llvm.memcpy.p0.p0.i64(ptr align 1 %268, ptr align 1 %269, i64 %270, i1 false)
  %271 = load ptr, ptr %10, align 8
  %272 = load ptr, ptr %271, align 8
  store ptr %272, ptr %4, align 8
  br label %274

273:                                              ; preds = %2
  store ptr null, ptr %4, align 8
  br label %274

274:                                              ; preds = %273, %264
  %275 = load ptr, ptr %4, align 8
  ret ptr %275
}