; Function Attrs: nounwind uwtable
define noundef ptr @php_libxml_register_export(ptr nocapture noundef readonly %0, ptr noundef %1) local_unnamed_addr #0 {
  %3 = alloca %struct._zval_struct, align 8
  %.b.i = load i1, ptr @_php_libxml_initialized, align 4
  br i1 %.b.i, label %php_libxml_initialize.exit, label %4

4:                                                ; preds = %2
  tail call void @xmlInitParser() #17
  %5 = tail call ptr @xmlGetExternalEntityLoader() #17
  store ptr %5, ptr @_php_libxml_default_entity_loader, align 8
  tail call void @xmlSetExternalEntityLoader(ptr noundef nonnull @_php_libxml_pre_ext_ent_loader) #17
  tail call void @_zend_hash_init(ptr noundef nonnull @php_libxml_exports, i32 noundef 0, ptr noundef nonnull @php_libxml_exports_dtor, i1 noundef zeroext true) #17
  store i1 true, ptr @_php_libxml_initialized, align 4
  br label %php_libxml_initialize.exit

php_libxml_initialize.exit:                       ; preds = %2, %4
  %6 = getelementptr inbounds i8, ptr %0, i64 8
  %7 = load ptr, ptr %6, align 8
  store ptr null, ptr %3, align 8
  %8 = getelementptr inbounds i8, ptr %3, i64 8
  store i32 13, ptr %8, align 8
  %9 = call ptr @zend_hash_add(ptr noundef nonnull @php_libxml_exports, ptr noundef %7, ptr noundef nonnull %3) #17
  %.not = icmp eq ptr %9, null
  br i1 %.not, label %19, label %10

10:                                               ; preds = %php_libxml_initialize.exit
  %11 = load i32, ptr getelementptr inbounds (%struct._zend_array, ptr @php_libxml_exports, i64 0, i32 0, i32 1), align 4
  %12 = and i32 %11, 128
  %.not48 = icmp eq i32 %12, 0
  br i1 %.not48, label %15, label %13

13:                                               ; preds = %10
  %14 = call noalias dereferenceable_or_null(8) ptr @__zend_malloc(i64 noundef 8) #18
  br label %17

15:                                               ; preds = %10
  %16 = call noalias ptr @_emalloc_8() #17
  br label %17

17:                                               ; preds = %15, %13
  %18 = phi ptr [ %14, %13 ], [ %16, %15 ]
  store ptr %18, ptr %9, align 8
  store ptr %1, ptr %18, align 1
  br label %19

19:                                               ; preds = %php_libxml_initialize.exit, %17
  %.0 = phi ptr [ %18, %17 ], [ null, %php_libxml_initialize.exit ]
  ret ptr %.0
}